target datalayout = "e-m:e-p270:32:32-p271:32:32-p272:64:64-i64:64-i128:128-f80:128-n8:16:32:64-S128"
target triple = "x86_64-pc-linux-gnu"

%struct.sapi_header_struct = type { ptr, i64 }

; Function Attrs: nounwind uwtable
define internal void @add_response_header(ptr noundef %0, ptr noundef %1) #0 {
  %3 = alloca ptr, align 8
  %4 = alloca ptr, align 8
  %5 = alloca ptr, align 8
  %6 = alloca i64, align 8
  %7 = alloca i8, align 1
  %8 = alloca ptr, align 8
  store ptr %0, ptr %3, align 8, !tbaa !66
  store ptr %1, ptr %4, align 8, !tbaa !9
  %9 = load ptr, ptr %3, align 8, !tbaa !66
  %10 = getelementptr inbounds nuw %struct.sapi_header_struct, ptr %9, i32 0, i32 1
  %11 = load i64, ptr %10, align 8, !tbaa !67
  %12 = icmp ugt i64 %11, 0
  br i1 %12, label %13, label %401

13:                                               ; preds = %2
  call void @llvm.lifetime.start.p0(i64 8, ptr %5) #20
  call void @llvm.lifetime.start.p0(i64 8, ptr %6) #20
  store i64 0, ptr %6, align 8, !tbaa !64
  call void @llvm.lifetime.start.p0(i64 1, ptr %7) #20
  call void @llvm.lifetime.start.p0(i64 8, ptr %8) #20
  %14 = load ptr, ptr %3, align 8, !tbaa !66
  %15 = getelementptr inbounds nuw %struct.sapi_header_struct, ptr %14, i32 0, i32 0
  %16 = load ptr, ptr %15, align 8, !tbaa !69
  %17 = call ptr @strchr(ptr noundef %16, i32 noundef 58) #21
  store ptr %17, ptr %8, align 8, !tbaa !63
  %18 = load ptr, ptr %8, align 8, !tbaa !63
  %19 = icmp ne ptr null, %18
  br i1 %19, label %20, label %28

20:                                               ; preds = %13
  %21 = load ptr, ptr %8, align 8, !tbaa !63
  %22 = load ptr, ptr %3, align 8, !tbaa !66
  %23 = getelementptr inbounds nuw %struct.sapi_header_struct, ptr %22, i32 0, i32 0
  %24 = load ptr, ptr %23, align 8, !tbaa !69
  %25 = ptrtoint ptr %21 to i64
  %26 = ptrtoint ptr %24 to i64
  %27 = sub i64 %25, %26
  store i64 %27, ptr %6, align 8, !tbaa !64
  br label %28

28:                                               ; preds = %20, %13
  %29 = load i64, ptr %6, align 8, !tbaa !64
  %30 = icmp ugt i64 %29, 0
  br i1 %30, label %31, label %400

31:                                               ; preds = %28
  br label %32

32:                                               ; preds = %59, %31
  %33 = load i64, ptr %6, align 8, !tbaa !64
  %34 = icmp ne i64 %33, 0
  br i1 %34, label %35, label %57

35:                                               ; preds = %32
  %36 = load ptr, ptr %3, align 8, !tbaa !66
  %37 = getelementptr inbounds nuw %struct.sapi_header_struct, ptr %36, i32 0, i32 0
  %38 = load ptr, ptr %37, align 8, !tbaa !69
  %39 = load i64, ptr %6, align 8, !tbaa !64
  %40 = sub i64 %39, 1
  %41 = getelementptr inbounds nuw i8, ptr %38, i64 %40
  %42 = load i8, ptr %41, align 1, !tbaa !11
  %43 = sext i8 %42 to i32
  %44 = icmp eq i32 %43, 32
  br i1 %44, label %55, label %45

45:                                               ; preds = %35
  %46 = load ptr, ptr %3, align 8, !tbaa !66
  %47 = getelementptr inbounds nuw %struct.sapi_header_struct, ptr %46, i32 0, i32 0
  %48 = load ptr, ptr %47, align 8, !tbaa !69
  %49 = load i64, ptr %6, align 8, !tbaa !64
  %50 = sub i64 %49, 1
  %51 = getelementptr inbounds nuw i8, ptr %48, i64 %50
  %52 = load i8, ptr %51, align 1, !tbaa !11
  %53 = sext i8 %52 to i32
  %54 = icmp eq i32 %53, 9
  br label %55

55:                                               ; preds = %45, %35
  %56 = phi i1 [ true, %35 ], [ %54, %45 ]
  br label %57

57:                                               ; preds = %55, %32
  %58 = phi i1 [ false, %32 ], [ %56, %55 ]
  br i1 %58, label %59, label %62

59:                                               ; preds = %57
  %60 = load i64, ptr %6, align 8, !tbaa !64
  %61 = add i64 %60, -1
  store i64 %61, ptr %6, align 8, !tbaa !64
  br label %32

62:                                               ; preds = %57
  %63 = load i64, ptr %6, align 8, !tbaa !64
  %64 = icmp ne i64 %63, 0
  br i1 %64, label %65, label %399

65:                                               ; preds = %62
  %66 = load i64, ptr %6, align 8, !tbaa !64
  %67 = add i64 %66, 1
  %68 = icmp ugt i64 %67, 32768
  %69 = xor i1 %68, true
  %70 = xor i1 %69, true
  %71 = zext i1 %70 to i32
  %72 = sext i32 %71 to i64
  %73 = call i64 @llvm.expect.i64(i64 %72, i64 0)
  %74 = icmp ne i64 %73, 0
  %75 = zext i1 %74 to i8
  store i8 %75, ptr %7, align 1, !tbaa !70
  br i1 %74, label %76, label %340

76:                                               ; preds = %65
  %77 = load i64, ptr %6, align 8, !tbaa !64
  %78 = add i64 %77, 1
  %79 = call i1 @llvm.is.constant.i64(i64 %78)
  br i1 %79, label %80, label %334

80:                                               ; preds = %76
  %81 = load i64, ptr %6, align 8, !tbaa !64
  %82 = add i64 %81, 1
  %83 = icmp ule i64 %82, 8
  br i1 %83, label %84, label %86

84:                                               ; preds = %80
  %85 = call noalias ptr @_emalloc_8()
  br label %332

86:                                               ; preds = %80
  %87 = load i64, ptr %6, align 8, !tbaa !64
  %88 = add i64 %87, 1
  %89 = icmp ule i64 %88, 16
  br i1 %89, label %90, label %92

90:                                               ; preds = %86
  %91 = call noalias ptr @_emalloc_16()
  br label %330

92:                                               ; preds = %86
  %93 = load i64, ptr %6, align 8, !tbaa !64
  %94 = add i64 %93, 1
  %95 = icmp ule i64 %94, 24
  br i1 %95, label %96, label %98

96:                                               ; preds = %92
  %97 = call noalias ptr @_emalloc_24()
  br label %328

98:                                               ; preds = %92
  %99 = load i64, ptr %6, align 8, !tbaa !64
  %100 = add i64 %99, 1
  %101 = icmp ule i64 %100, 32
  br i1 %101, label %102, label %104

102:                                              ; preds = %98
  %103 = call noalias ptr @_emalloc_32()
  br label %326

104:                                              ; preds = %98
  %105 = load i64, ptr %6, align 8, !tbaa !64
  %106 = add i64 %105, 1
  %107 = icmp ule i64 %106, 40
  br i1 %107, label %108, label %110

108:                                              ; preds = %104
  %109 = call noalias ptr @_emalloc_40()
  br label %324

110:                                              ; preds = %104
  %111 = load i64, ptr %6, align 8, !tbaa !64
  %112 = add i64 %111, 1
  %113 = icmp ule i64 %112, 48
  br i1 %113, label %114, label %116

114:                                              ; preds = %110
  %115 = call noalias ptr @_emalloc_48()
  br label %322

116:                                              ; preds = %110
  %117 = load i64, ptr %6, align 8, !tbaa !64
  %118 = add i64 %117, 1
  %119 = icmp ule i64 %118, 56
  br i1 %119, label %120, label %122

120:                                              ; preds = %116
  %121 = call noalias ptr @_emalloc_56()
  br label %320

122:                                              ; preds = %116
  %123 = load i64, ptr %6, align 8, !tbaa !64
  %124 = add i64 %123, 1
  %125 = icmp ule i64 %124, 64
  br i1 %125, label %126, label %128

126:                                              ; preds = %122
  %127 = call noalias ptr @_emalloc_64()
  br label %318

128:                                              ; preds = %122
  %129 = load i64, ptr %6, align 8, !tbaa !64
  %130 = add i64 %129, 1
  %131 = icmp ule i64 %130, 80
  br i1 %131, label %132, label %134

132:                                              ; preds = %128
  %133 = call noalias ptr @_emalloc_80()
  br label %316

134:                                              ; preds = %128
  %135 = load i64, ptr %6, align 8, !tbaa !64
  %136 = add i64 %135, 1
  %137 = icmp ule i64 %136, 96
  br i1 %137, label %138, label %140

138:                                              ; preds = %134
  %139 = call noalias ptr @_emalloc_96()
  br label %314

140:                                              ; preds = %134
  %141 = load i64, ptr %6, align 8, !tbaa !64
  %142 = add i64 %141, 1
  %143 = icmp ule i64 %142, 112
  br i1 %143, label %144, label %146

144:                                              ; preds = %140
  %145 = call noalias ptr @_emalloc_112()
  br label %312

146:                                              ; preds = %140
  %147 = load i64, ptr %6, align 8, !tbaa !64
  %148 = add i64 %147, 1
  %149 = icmp ule i64 %148, 128
  br i1 %149, label %150, label %152

150:                                              ; preds = %146
  %151 = call noalias ptr @_emalloc_128()
  br label %310

152:                                              ; preds = %146
  %153 = load i64, ptr %6, align 8, !tbaa !64
  %154 = add i64 %153, 1
  %155 = icmp ule i64 %154, 160
  br i1 %155, label %156, label %158

156:                                              ; preds = %152
  %157 = call noalias ptr @_emalloc_160()
  br label %308

158:                                              ; preds = %152
  %159 = load i64, ptr %6, align 8, !tbaa !64
  %160 = add i64 %159, 1
  %161 = icmp ule i64 %160, 192
  br i1 %161, label %162, label %164

162:                                              ; preds = %158
  %163 = call noalias ptr @_emalloc_192()
  br label %306

164:                                              ; preds = %158
  %165 = load i64, ptr %6, align 8, !tbaa !64
  %166 = add i64 %165, 1
  %167 = icmp ule i64 %166, 224
  br i1 %167, label %168, label %170

168:                                              ; preds = %164
  %169 = call noalias ptr @_emalloc_224()
  br label %304

170:                                              ; preds = %164
  %171 = load i64, ptr %6, align 8, !tbaa !64
  %172 = add i64 %171, 1
  %173 = icmp ule i64 %172, 256
  br i1 %173, label %174, label %176

174:                                              ; preds = %170
  %175 = call noalias ptr @_emalloc_256()
  br label %302

176:                                              ; preds = %170
  %177 = load i64, ptr %6, align 8, !tbaa !64
  %178 = add i64 %177, 1
  %179 = icmp ule i64 %178, 320
  br i1 %179, label %180, label %182

180:                                              ; preds = %176
  %181 = call noalias ptr @_emalloc_320()
  br label %300

182:                                              ; preds = %176
  %183 = load i64, ptr %6, align 8, !tbaa !64
  %184 = add i64 %183, 1
  %185 = icmp ule i64 %184, 384
  br i1 %185, label %186, label %188

186:                                              ; preds = %182
  %187 = call noalias ptr @_emalloc_384()
  br label %298

188:                                              ; preds = %182
  %189 = load i64, ptr %6, align 8, !tbaa !64
  %190 = add i64 %189, 1
  %191 = icmp ule i64 %190, 448
  br i1 %191, label %192, label %194

192:                                              ; preds = %188
  %193 = call noalias ptr @_emalloc_448()
  br label %296

194:                                              ; preds = %188
  %195 = load i64, ptr %6, align 8, !tbaa !64
  %196 = add i64 %195, 1
  %197 = icmp ule i64 %196, 512
  br i1 %197, label %198, label %200

198:                                              ; preds = %194
  %199 = call noalias ptr @_emalloc_512()
  br label %294

200:                                              ; preds = %194
  %201 = load i64, ptr %6, align 8, !tbaa !64
  %202 = add i64 %201, 1
  %203 = icmp ule i64 %202, 640
  br i1 %203, label %204, label %206

204:                                              ; preds = %200
  %205 = call noalias ptr @_emalloc_640()
  br label %292

206:                                              ; preds = %200
  %207 = load i64, ptr %6, align 8, !tbaa !64
  %208 = add i64 %207, 1
  %209 = icmp ule i64 %208, 768
  br i1 %209, label %210, label %212

210:                                              ; preds = %206
  %211 = call noalias ptr @_emalloc_768()
  br label %290

212:                                              ; preds = %206
  %213 = load i64, ptr %6, align 8, !tbaa !64
  %214 = add i64 %213, 1
  %215 = icmp ule i64 %214, 896
  br i1 %215, label %216, label %218

216:                                              ; preds = %212
  %217 = call noalias ptr @_emalloc_896()
  br label %288

218:                                              ; preds = %212
  %219 = load i64, ptr %6, align 8, !tbaa !64
  %220 = add i64 %219, 1
  %221 = icmp ule i64 %220, 1024
  br i1 %221, label %222, label %224

222:                                              ; preds = %218
  %223 = call noalias ptr @_emalloc_1024()
  br label %286

224:                                              ; preds = %218
  %225 = load i64, ptr %6, align 8, !tbaa !64
  %226 = add i64 %225, 1
  %227 = icmp ule i64 %226, 1280
  br i1 %227, label %228, label %230

228:                                              ; preds = %224
  %229 = call noalias ptr @_emalloc_1280()
  br label %284

230:                                              ; preds = %224
  %231 = load i64, ptr %6, align 8, !tbaa !64
  %232 = add i64 %231, 1
  %233 = icmp ule i64 %232, 1536
  br i1 %233, label %234, label %236

234:                                              ; preds = %230
  %235 = call noalias ptr @_emalloc_1536()
  br label %282

236:                                              ; preds = %230
  %237 = load i64, ptr %6, align 8, !tbaa !64
  %238 = add i64 %237, 1
  %239 = icmp ule i64 %238, 1792
  br i1 %239, label %240, label %242

240:                                              ; preds = %236
  %241 = call noalias ptr @_emalloc_1792()
  br label %280

242:                                              ; preds = %236
  %243 = load i64, ptr %6, align 8, !tbaa !64
  %244 = add i64 %243, 1
  %245 = icmp ule i64 %244, 2048
  br i1 %245, label %246, label %248

246:                                              ; preds = %242
  %247 = call noalias ptr @_emalloc_2048()
  br label %278

248:                                              ; preds = %242
  %249 = load i64, ptr %6, align 8, !tbaa !64
  %250 = add i64 %249, 1
  %251 = icmp ule i64 %250, 2560
  br i1 %251, label %252, label %254

252:                                              ; preds = %248
  %253 = call noalias ptr @_emalloc_2560()
  br label %276

254:                                              ; preds = %248
  %255 = load i64, ptr %6, align 8, !tbaa !64
  %256 = add i64 %255, 1
  %257 = icmp ule i64 %256, 3072
  br i1 %257, label %258, label %260

258:                                              ; preds = %254
  %259 = call noalias ptr @_emalloc_3072()
  br label %274

260:                                              ; preds = %254
  %261 = load i64, ptr %6, align 8, !tbaa !64
  %262 = add i64 %261, 1
  %263 = icmp ule i64 %262, 2093056
  br i1 %263, label %264, label %268

264:                                              ; preds = %260
  %265 = load i64, ptr %6, align 8, !tbaa !64
  %266 = add i64 %265, 1
  %267 = call noalias ptr @_emalloc_large(i64 noundef %266) #22
  br label %272

268:                                              ; preds = %260
  %269 = load i64, ptr %6, align 8, !tbaa !64
  %270 = add i64 %269, 1
  %271 = call noalias ptr @_emalloc_huge(i64 noundef %270) #22
  br label %272

272:                                              ; preds = %268, %264
  %273 = phi ptr [ %267, %264 ], [ %271, %268 ]
  br label %274

274:                                              ; preds = %272, %258
  %275 = phi ptr [ %259, %258 ], [ %273, %272 ]
  br label %276

276:                                              ; preds = %274, %252
  %277 = phi ptr [ %253, %252 ], [ %275, %274 ]
  br label %278

278:                                              ; preds = %276, %246
  %279 = phi ptr [ %247, %246 ], [ %277, %276 ]
  br label %280

280:                                              ; preds = %278, %240
  %281 = phi ptr [ %241, %240 ], [ %279, %278 ]
  br label %282

282:                                              ; preds = %280, %234
  %283 = phi ptr [ %235, %234 ], [ %281, %280 ]
  br label %284

284:                                              ; preds = %282, %228
  %285 = phi ptr [ %229, %228 ], [ %283, %282 ]
  br label %286

286:                                              ; preds = %284, %222
  %287 = phi ptr [ %223, %222 ], [ %285, %284 ]
  br label %288

288:                                              ; preds = %286, %216
  %289 = phi ptr [ %217, %216 ], [ %287, %286 ]
  br label %290

290:                                              ; preds = %288, %210
  %291 = phi ptr [ %211, %210 ], [ %289, %288 ]
  br label %292

292:                                              ; preds = %290, %204
  %293 = phi ptr [ %205, %204 ], [ %291, %290 ]
  br label %294

294:                                              ; preds = %292, %198
  %295 = phi ptr [ %199, %198 ], [ %293, %292 ]
  br label %296

296:                                              ; preds = %294, %192
  %297 = phi ptr [ %193, %192 ], [ %295, %294 ]
  br label %298

298:                                              ; preds = %296, %186
  %299 = phi ptr [ %187, %186 ], [ %297, %296 ]
  br label %300

300:                                              ; preds = %298, %180
  %301 = phi ptr [ %181, %180 ], [ %299, %298 ]
  br label %302

302:                                              ; preds = %300, %174
  %303 = phi ptr [ %175, %174 ], [ %301, %300 ]
  br label %304

304:                                              ; preds = %302, %168
  %305 = phi ptr [ %169, %168 ], [ %303, %302 ]
  br label %306

306:                                              ; preds = %304, %162
  %307 = phi ptr [ %163, %162 ], [ %305, %304 ]
  br label %308

308:                                              ; preds = %306, %156
  %309 = phi ptr [ %157, %156 ], [ %307, %306 ]
  br label %310

310:                                              ; preds = %308, %150
  %311 = phi ptr [ %151, %150 ], [ %309, %308 ]
  br label %312

312:                                              ; preds = %310, %144
  %313 = phi ptr [ %145, %144 ], [ %311, %310 ]
  br label %314

314:                                              ; preds = %312, %138
  %315 = phi ptr [ %139, %138 ], [ %313, %312 ]
  br label %316

316:                                              ; preds = %314, %132
  %317 = phi ptr [ %133, %132 ], [ %315, %314 ]
  br label %318

318:                                              ; preds = %316, %126
  %319 = phi ptr [ %127, %126 ], [ %317, %316 ]
  br label %320

320:                                              ; preds = %318, %120
  %321 = phi ptr [ %121, %120 ], [ %319, %318 ]
  br label %322

322:                                              ; preds = %320, %114
  %323 = phi ptr [ %115, %114 ], [ %321, %320 ]
  br label %324

324:                                              ; preds = %322, %108
  %325 = phi ptr [ %109, %108 ], [ %323, %322 ]
  br label %326

326:                                              ; preds = %324, %102
  %327 = phi ptr [ %103, %102 ], [ %325, %324 ]
  br label %328

328:                                              ; preds = %326, %96
  %329 = phi ptr [ %97, %96 ], [ %327, %326 ]
  br label %330

330:                                              ; preds = %328, %90
  %331 = phi ptr [ %91, %90 ], [ %329, %328 ]
  br label %332

332:                                              ; preds = %330, %84
  %333 = phi ptr [ %85, %84 ], [ %331, %330 ]
  br label %338

334:                                              ; preds = %76
  %335 = load i64, ptr %6, align 8, !tbaa !64
  %336 = add i64 %335, 1
  %337 = call noalias ptr @_emalloc(i64 noundef %336) #22
  br label %338

338:                                              ; preds = %334, %332
  %339 = phi ptr [ %333, %332 ], [ %337, %334 ]
  br label %344

340:                                              ; preds = %65
  %341 = load i64, ptr %6, align 8, !tbaa !64
  %342 = add i64 %341, 1
  %343 = alloca i8, i64 %342, align 16
  br label %344

344:                                              ; preds = %340, %338
  %345 = phi ptr [ %339, %338 ], [ %343, %340 ]
  store ptr %345, ptr %5, align 8, !tbaa !63
  %346 = load ptr, ptr %5, align 8, !tbaa !63
  %347 = load ptr, ptr %3, align 8, !tbaa !66
  %348 = getelementptr inbounds nuw %struct.sapi_header_struct, ptr %347, i32 0, i32 0
  %349 = load ptr, ptr %348, align 8, !tbaa !69
  %350 = load i64, ptr %6, align 8, !tbaa !64
  call void @llvm.memcpy.p0.p0.i64(ptr align 1 %346, ptr align 1 %349, i64 %350, i1 false)
  %351 = load ptr, ptr %5, align 8, !tbaa !63
  %352 = load i64, ptr %6, align 8, !tbaa !64
  %353 = getelementptr inbounds nuw i8, ptr %351, i64 %352
  store i8 0, ptr %353, align 1, !tbaa !11
  br label %354

354:                                              ; preds = %367, %344
  %355 = load ptr, ptr %8, align 8, !tbaa !63
  %356 = getelementptr inbounds nuw i8, ptr %355, i32 1
  store ptr %356, ptr %8, align 8, !tbaa !63
  br label %357

357:                                              ; preds = %354
  %358 = load ptr, ptr %8, align 8, !tbaa !63
  %359 = load i8, ptr %358, align 1, !tbaa !11
  %360 = sext i8 %359 to i32
  %361 = icmp eq i32 %360, 32
  br i1 %361, label %367, label %362

362:                                              ; preds = %357
  %363 = load ptr, ptr %8, align 8, !tbaa !63
  %364 = load i8, ptr %363, align 1, !tbaa !11
  %365 = sext i8 %364 to i32
  %366 = icmp eq i32 %365, 9
  br label %367

367:                                              ; preds = %362, %357
  %368 = phi i1 [ true, %357 ], [ %366, %362 ]
  br i1 %368, label %354, label %369

369:                                              ; preds = %367
  %370 = load ptr, ptr %4, align 8, !tbaa !9
  %371 = load ptr, ptr %5, align 8, !tbaa !63
  %372 = load i64, ptr %6, align 8, !tbaa !64
  %373 = load ptr, ptr %8, align 8, !tbaa !63
  %374 = load ptr, ptr %3, align 8, !tbaa !66
  %375 = getelementptr inbounds nuw %struct.sapi_header_struct, ptr %374, i32 0, i32 1
  %376 = load i64, ptr %375, align 8, !tbaa !67
  %377 = load ptr, ptr %8, align 8, !tbaa !63
  %378 = load ptr, ptr %3, align 8, !tbaa !66
  %379 = getelementptr inbounds nuw %struct.sapi_header_struct, ptr %378, i32 0, i32 0
  %380 = load ptr, ptr %379, align 8, !tbaa !69
  %381 = ptrtoint ptr %377 to i64
  %382 = ptrtoint ptr %380 to i64
  %383 = sub i64 %381, %382
  %384 = sub i64 %376, %383
  call void @add_assoc_stringl_ex(ptr noundef %370, ptr noundef %371, i64 noundef %372, ptr noundef %373, i64 noundef %384)
  br label %385

385:                                              ; preds = %369
  %386 = load i8, ptr %7, align 1, !tbaa !70, !range !71, !noundef !72
  %387 = trunc i8 %386 to i1
  %388 = xor i1 %387, true
  %389 = xor i1 %388, true
  %390 = zext i1 %389 to i32
  %391 = sext i32 %390 to i64
  %392 = call i64 @llvm.expect.i64(i64 %391, i64 0)
  %393 = icmp ne i64 %392, 0
  br i1 %393, label %394, label %396

394:                                              ; preds = %385
  %395 = load ptr, ptr %5, align 8, !tbaa !63
  call void @_efree(ptr noundef %395)
  br label %396

396:                                              ; preds = %394, %385
  br label %397

397:                                              ; preds = %396
  br label %398

398:                                              ; preds = %397
  br label %399

399:                                              ; preds = %398, %62
  br label %400

400:                                              ; preds = %399, %28
  call void @llvm.lifetime.end.p0(i64 8, ptr %8) #20
  call void @llvm.lifetime.end.p0(i64 1, ptr %7) #20
  call void @llvm.lifetime.end.p0(i64 8, ptr %6) #20
  call void @llvm.lifetime.end.p0(i64 8, ptr %5) #20
  br label %401

401:                                              ; preds = %400, %2
  ret void
}