; Function Attrs: nounwind uwtable
define internal void @add_response_header(ptr noundef readonly captures(none) %0, ptr noundef %1) #0 {
  %3 = getelementptr inbounds nuw i8, ptr %0, i64 8
  %4 = load i64, ptr %3, align 8, !tbaa !61
  %.not = icmp eq i64 %4, 0
  br i1 %.not, label %.critedge78, label %5

5:                                                ; preds = %2
  %6 = load ptr, ptr %0, align 8, !tbaa !63
  %7 = tail call ptr @strchr(ptr noundef nonnull dereferenceable(1) %6, i32 noundef 58) #30
  %.not75 = icmp eq ptr %7, null
  %8 = ptrtoint ptr %7 to i64
  %9 = ptrtoint ptr %6 to i64
  %10 = sub i64 %8, %9
  %.not7679 = icmp eq i64 %10, 0
  %.not76 = or i1 %.not75, %.not7679
  br i1 %.not76, label %.critedge78, label %.preheader

.preheader:                                       ; preds = %5
  %invariant.gep = getelementptr i8, ptr %6, i64 -1
  br label %11

11:                                               ; preds = %.preheader, %.critedge2
  %.182 = phi i64 [ %10, %.preheader ], [ %13, %.critedge2 ]
  %gep = getelementptr i8, ptr %invariant.gep, i64 %.182
  %12 = load i8, ptr %gep, align 1, !tbaa !4
  switch i8 %12, label %.critedge [
    i8 32, label %.critedge2
    i8 9, label %.critedge2
  ]

.critedge2:                                       ; preds = %11, %11
  %13 = add i64 %.182, -1
  %.not77 = icmp eq i64 %13, 0
  br i1 %.not77, label %.critedge78, label %11

.critedge:                                        ; preds = %11
  %14 = add i64 %.182, 1
  %15 = icmp ugt i64 %14, 32768
  br i1 %15, label %16, label %18, !prof !64

16:                                               ; preds = %.critedge
  %17 = tail call noalias ptr @_emalloc(i64 noundef %14) #31
  br label %20

18:                                               ; preds = %.critedge
  %19 = alloca i8, i64 %14, align 16
  br label %20

20:                                               ; preds = %16, %18
  %21 = phi ptr [ %19, %18 ], [ %17, %16 ]
  %22 = load ptr, ptr %0, align 8, !tbaa !63
  call void @llvm.memcpy.p0.p0.i64(ptr align 1 %21, ptr align 1 %22, i64 %.182, i1 false)
  %23 = getelementptr inbounds nuw i8, ptr %21, i64 %.182
  store i8 0, ptr %23, align 1, !tbaa !4
  br label %.critedge4

.critedge4:                                       ; preds = %.critedge4.backedge, %20
  %.0 = phi ptr [ %7, %20 ], [ %24, %.critedge4.backedge ]
  %24 = getelementptr inbounds nuw i8, ptr %.0, i64 1
  %25 = load i8, ptr %24, align 1, !tbaa !4
  switch i8 %25, label %26 [
    i8 32, label %.critedge4.backedge
    i8 9, label %.critedge4.backedge
  ]

.critedge4.backedge:                              ; preds = %.critedge4, %.critedge4
  br label %.critedge4

26:                                               ; preds = %.critedge4
  %27 = load i64, ptr %3, align 8, !tbaa !61
  %28 = ptrtoint ptr %24 to i64
  %29 = ptrtoint ptr %22 to i64
  %.neg = sub i64 %29, %28
  %30 = add i64 %.neg, %27
  call void @add_assoc_stringl_ex(ptr noundef %1, ptr noundef %21, i64 noundef %.182, ptr noundef nonnull %24, i64 noundef %30) #29
  br i1 %15, label %31, label %.critedge78, !prof !64

31:                                               ; preds = %26
  call void @_efree(ptr noundef %21) #29
  br label %.critedge78

.critedge78:                                      ; preds = %.critedge2, %5, %26, %31, %2
  ret void
}